; Function Attrs: mustprogress uwtable
define void @_ZN32pxrInternal_v0_24__pxrReserved__37UsdUtils_WritableLocalizationDelegate19_GetRelativeKeyPathERKNSt7__cxx1112basic_stringIcSt11char_traitsIcESaIcEEE(ptr dead_on_unwind noalias writable sret(%"class.std::__cxx11::basic_string") align 8 %0, ptr noundef nonnull align 8 dereferenceable(32) %1) local_unnamed_addr #0 align 2 {
  %3 = tail call noundef i64 @_ZNKSt7__cxx1112basic_stringIcSt11char_traitsIcESaIcEE13find_first_ofEcm(ptr noundef nonnull align 8 dereferenceable(32) %1, i8 noundef signext 58, i64 noundef 0) #19
  %4 = icmp eq i64 %3, -1
  br i1 %4, label %5, label %6

5:                                                ; preds = %2
  tail call void @_ZNSt7__cxx1112basic_stringIcSt11char_traitsIcESaIcEEC1ERKS4_(ptr noundef nonnull align 8 dereferenceable(32) %0, ptr noundef nonnull align 8 dereferenceable(32) %1)
  br label %8

6:                                                ; preds = %2
  %7 = add nuw i64 %3, 1
  tail call void @_ZNKSt7__cxx1112basic_stringIcSt11char_traitsIcESaIcEE6substrEmm(ptr dead_on_unwind writable sret(%"class.std::__cxx11::basic_string") align 8 %0, ptr noundef nonnull align 8 dereferenceable(32) %1, i64 noundef %7, i64 noundef -1)
  br label %8

8:                                                ; preds = %6, %5
  ret void
}